target datalayout = "e-m:e-p270:32:32-p271:32:32-p272:64:64-i64:64-i128:128-f80:128-n8:16:32:64-S128"
target triple = "x86_64-pc-linux-gnu"

@.str.3 = private unnamed_addr constant [22 x i8] c"pthread_detach failed\00", align 1

; Function Attrs: mustprogress nounwind uwtable
define dso_local void @_ZN4llvm23llvm_thread_detach_implEm(i64 noundef %0) #0 {
  %2 = alloca i64, align 8
  %3 = alloca i32, align 4
  store i64 %0, ptr %2, align 8
  %4 = load i64, ptr %2, align 8
  %5 = call i32 @pthread_detach(i64 noundef %4) #8
  store i32 %5, ptr %3, align 4
  %6 = icmp ne i32 %5, 0
  br i1 %6, label %7, label %9

7:                                                ; preds = %1
  %8 = load i32, ptr %3, align 4
  call void @_ZL17ReportErrnumFatalPKci(ptr noundef @.str.3, i32 noundef %8) #10
  unreachable

9:                                                ; preds = %1
  ret void
}