; Function Attrs: mustprogress nounwind uwtable
define dso_local void @_ZN4llvm23llvm_thread_detach_implEm(i64 noundef %0) local_unnamed_addr #0 {
  %2 = tail call i32 @pthread_detach(i64 noundef %0) #18
  %.not = icmp eq i32 %2, 0
  br i1 %.not, label %4, label %3

3:                                                ; preds = %1
  tail call fastcc void @_ZL17ReportErrnumFatalPKci(ptr noundef nonnull @.str.3, i32 noundef %2) #19
  unreachable

4:                                                ; preds = %1
  ret void
}